target datalayout = "e-m:e-p270:32:32-p271:32:32-p272:64:64-i64:64-i128:128-f80:128-n8:16:32:64-S128"
target triple = "x86_64-pc-linux-gnu"

%struct.cache_bin_info_s = type { i16 }

; Function Attrs: inlinehint nounwind uwtable
define internal i32 @fls_lu(i64 noundef %0) #3 {
  %2 = alloca i64, align 8
  store i64 %0, ptr %2, align 8, !tbaa !16
  %3 = load i64, ptr %2, align 8, !tbaa !16
  %4 = icmp ne i64 %3, 0
  call void @llvm.assume(i1 %4)
  %5 = load i64, ptr %2, align 8, !tbaa !16
  %6 = call i64 @llvm.ctlz.i64(i64 %5, i1 true)
  %7 = trunc i64 %6 to i32
  %8 = sext i32 %7 to i64
  %9 = xor i64 63, %8
  %10 = trunc i64 %9 to i32
  ret i32 %10
}

; Function Attrs: inlinehint nounwind uwtable
define internal i32 @fls_u64(i64 noundef %0) #3 {
  %2 = alloca i64, align 8
  store i64 %0, ptr %2, align 8, !tbaa !16
  %3 = load i64, ptr %2, align 8, !tbaa !16
  %4 = call i32 @fls_lu(i64 noundef %3)
  ret i32 %4
}

; Function Attrs: inlinehint nounwind uwtable
define internal i64 @pow2_ceil_u64(i64 noundef %0) #3 {
  %2 = alloca i64, align 8
  %3 = alloca i64, align 8
  %4 = alloca i64, align 8
  store i64 %0, ptr %3, align 8, !tbaa !16
  %5 = load i64, ptr %3, align 8, !tbaa !16
  %6 = icmp ule i64 %5, 1
  %7 = xor i1 %6, true
  %8 = xor i1 %7, true
  %9 = zext i1 %8 to i32
  %10 = sext i32 %9 to i64
  %11 = call i64 @llvm.expect.i64(i64 %10, i64 0)
  %12 = icmp ne i64 %11, 0
  br i1 %12, label %13, label %15

13:                                               ; preds = %1
  %14 = load i64, ptr %3, align 8, !tbaa !16
  store i64 %14, ptr %2, align 8
  br label %26

15:                                               ; preds = %1
  call void @llvm.lifetime.start.p0(i64 8, ptr %4) #13
  %16 = load i64, ptr %3, align 8, !tbaa !16
  %17 = sub i64 %16, 1
  %18 = call i32 @fls_u64(i64 noundef %17)
  %19 = zext i32 %18 to i64
  store i64 %19, ptr %4, align 8, !tbaa !16
  br label %20

20:                                               ; preds = %15
  br label %21

21:                                               ; preds = %20
  br label %22

22:                                               ; preds = %21
  %23 = load i64, ptr %4, align 8, !tbaa !16
  %24 = add i64 %23, 1
  %25 = shl i64 1, %24
  store i64 %25, ptr %2, align 8
  call void @llvm.lifetime.end.p0(i64 8, ptr %4) #13
  br label %26

26:                                               ; preds = %22, %13
  %27 = load i64, ptr %2, align 8
  ret i64 %27
}

; Function Attrs: inlinehint nounwind uwtable
define internal i32 @lg_floor(i64 noundef %0) #3 {
  %2 = alloca i64, align 8
  store i64 %0, ptr %2, align 8, !tbaa !16
  %3 = load i64, ptr %2, align 8, !tbaa !16
  %4 = icmp ne i64 %3, 0
  call void @llvm.assume(i1 %4)
  %5 = load i64, ptr %2, align 8, !tbaa !16
  %6 = call i32 @fls_u64(i64 noundef %5)
  ret i32 %6
}

; Function Attrs: inlinehint nounwind uwtable
define internal i64 @pow2_ceil_zu(i64 noundef %0) #3 {
  %2 = alloca i64, align 8
  store i64 %0, ptr %2, align 8, !tbaa !16
  %3 = load i64, ptr %2, align 8, !tbaa !16
  %4 = call i64 @pow2_ceil_u64(i64 noundef %3)
  ret i64 %4
}

; Function Attrs: alwaysinline nounwind uwtable
define internal i32 @sz_size2index_compute_inline(i64 noundef %0) #1 {
  %2 = alloca i32, align 4
  %3 = alloca i64, align 8
  %4 = alloca i32, align 4
  %5 = alloca i32, align 4
  %6 = alloca i32, align 4
  %7 = alloca i32, align 4
  %8 = alloca i32, align 4
  %9 = alloca i32, align 4
  %10 = alloca i64, align 8
  %11 = alloca i32, align 4
  %12 = alloca i32, align 4
  store i64 %0, ptr %3, align 8, !tbaa !16
  %13 = load i64, ptr %3, align 8, !tbaa !16
  %14 = icmp ugt i64 %13, 8070450532247928832
  %15 = xor i1 %14, true
  %16 = xor i1 %15, true
  %17 = zext i1 %16 to i32
  %18 = sext i32 %17 to i64
  %19 = call i64 @llvm.expect.i64(i64 %18, i64 0)
  %20 = icmp ne i64 %19, 0
  br i1 %20, label %21, label %22

21:                                               ; preds = %1
  store i32 232, ptr %2, align 4
  br label %84

22:                                               ; preds = %1
  %23 = load i64, ptr %3, align 8, !tbaa !16
  %24 = icmp eq i64 %23, 0
  br i1 %24, label %25, label %26

25:                                               ; preds = %22
  store i32 0, ptr %2, align 4
  br label %84

26:                                               ; preds = %22
  %27 = load i64, ptr %3, align 8, !tbaa !16
  %28 = icmp ule i64 %27, 8
  br i1 %28, label %29, label %43

29:                                               ; preds = %26
  call void @llvm.lifetime.start.p0(i64 4, ptr %4) #13
  store i32 3, ptr %4, align 4, !tbaa !34
  call void @llvm.lifetime.start.p0(i64 4, ptr %5) #13
  %30 = load i64, ptr %3, align 8, !tbaa !16
  %31 = call i64 @pow2_ceil_zu(i64 noundef %30)
  %32 = call i32 @lg_floor(i64 noundef %31)
  store i32 %32, ptr %5, align 4, !tbaa !34
  %33 = load i32, ptr %5, align 4, !tbaa !34
  %34 = load i32, ptr %4, align 4, !tbaa !34
  %35 = icmp ult i32 %33, %34
  br i1 %35, label %36, label %37

36:                                               ; preds = %29
  br label %41

37:                                               ; preds = %29
  %38 = load i32, ptr %5, align 4, !tbaa !34
  %39 = load i32, ptr %4, align 4, !tbaa !34
  %40 = sub i32 %38, %39
  br label %41

41:                                               ; preds = %37, %36
  %42 = phi i32 [ 0, %36 ], [ %40, %37 ]
  store i32 %42, ptr %2, align 4
  call void @llvm.lifetime.end.p0(i64 4, ptr %5) #13
  call void @llvm.lifetime.end.p0(i64 4, ptr %4) #13
  br label %84

43:                                               ; preds = %26
  call void @llvm.lifetime.start.p0(i64 4, ptr %6) #13
  %44 = load i64, ptr %3, align 8, !tbaa !16
  %45 = shl i64 %44, 1
  %46 = sub i64 %45, 1
  %47 = call i32 @lg_floor(i64 noundef %46)
  store i32 %47, ptr %6, align 4, !tbaa !34
  call void @llvm.lifetime.start.p0(i64 4, ptr %7) #13
  %48 = load i32, ptr %6, align 4, !tbaa !34
  %49 = icmp ult i32 %48, 6
  br i1 %49, label %50, label %51

50:                                               ; preds = %43
  br label %54

51:                                               ; preds = %43
  %52 = load i32, ptr %6, align 4, !tbaa !34
  %53 = sub i32 %52, 6
  br label %54

54:                                               ; preds = %51, %50
  %55 = phi i32 [ 0, %50 ], [ %53, %51 ]
  store i32 %55, ptr %7, align 4, !tbaa !34
  call void @llvm.lifetime.start.p0(i64 4, ptr %8) #13
  %56 = load i32, ptr %7, align 4, !tbaa !34
  %57 = shl i32 %56, 2
  store i32 %57, ptr %8, align 4, !tbaa !34
  call void @llvm.lifetime.start.p0(i64 4, ptr %9) #13
  %58 = load i32, ptr %6, align 4, !tbaa !34
  %59 = icmp ult i32 %58, 7
  br i1 %59, label %60, label %61

60:                                               ; preds = %54
  br label %65

61:                                               ; preds = %54
  %62 = load i32, ptr %6, align 4, !tbaa !34
  %63 = sub i32 %62, 2
  %64 = sub i32 %63, 1
  br label %65

65:                                               ; preds = %61, %60
  %66 = phi i32 [ 4, %60 ], [ %64, %61 ]
  store i32 %66, ptr %9, align 4, !tbaa !34
  call void @llvm.lifetime.start.p0(i64 8, ptr %10) #13
  %67 = load i32, ptr %9, align 4, !tbaa !34
  %68 = zext i32 %67 to i64
  %69 = shl i64 -1, %68
  store i64 %69, ptr %10, align 8, !tbaa !16
  call void @llvm.lifetime.start.p0(i64 4, ptr %11) #13
  %70 = load i64, ptr %3, align 8, !tbaa !16
  %71 = sub i64 %70, 1
  %72 = load i64, ptr %10, align 8, !tbaa !16
  %73 = and i64 %71, %72
  %74 = load i32, ptr %9, align 4, !tbaa !34
  %75 = zext i32 %74 to i64
  %76 = lshr i64 %73, %75
  %77 = and i64 %76, 3
  %78 = trunc i64 %77 to i32
  store i32 %78, ptr %11, align 4, !tbaa !34
  call void @llvm.lifetime.start.p0(i64 4, ptr %12) #13
  %79 = load i32, ptr %8, align 4, !tbaa !34
  %80 = add i32 1, %79
  %81 = load i32, ptr %11, align 4, !tbaa !34
  %82 = add i32 %80, %81
  store i32 %82, ptr %12, align 4, !tbaa !34
  %83 = load i32, ptr %12, align 4, !tbaa !34
  store i32 %83, ptr %2, align 4
  call void @llvm.lifetime.end.p0(i64 4, ptr %12) #13
  call void @llvm.lifetime.end.p0(i64 4, ptr %11) #13
  call void @llvm.lifetime.end.p0(i64 8, ptr %10) #13
  call void @llvm.lifetime.end.p0(i64 4, ptr %9) #13
  call void @llvm.lifetime.end.p0(i64 4, ptr %8) #13
  call void @llvm.lifetime.end.p0(i64 4, ptr %7) #13
  call void @llvm.lifetime.end.p0(i64 4, ptr %6) #13
  br label %84

84:                                               ; preds = %65, %41, %25, %21
  %85 = load i32, ptr %2, align 4
  ret i32 %85
}

; Function Attrs: inlinehint nounwind uwtable
define internal i32 @sz_size2index_compute(i64 noundef %0) #3 {
  %2 = alloca i64, align 8
  store i64 %0, ptr %2, align 8, !tbaa !16
  %3 = load i64, ptr %2, align 8, !tbaa !16
  %4 = call i32 @sz_size2index_compute_inline(i64 noundef %3)
  ret i32 %4
}

; Function Attrs: nounwind uwtable
define internal zeroext i1 @tcache_bin_info_settings_parse(ptr noundef %0, i64 noundef %1, ptr noundef %2, ptr noundef %3) #0 {
  %5 = alloca i1, align 1
  %6 = alloca ptr, align 8
  %7 = alloca i64, align 8
  %8 = alloca ptr, align 8
  %9 = alloca ptr, align 8
  %10 = alloca i64, align 8
  %11 = alloca i64, align 8
  %12 = alloca i64, align 8
  %13 = alloca i8, align 1
  %14 = alloca i32, align 4
  %15 = alloca i32, align 4
  %16 = alloca i32, align 4
  %17 = alloca i32, align 4
  store ptr %0, ptr %6, align 8, !tbaa !135
  store i64 %1, ptr %7, align 8, !tbaa !16
  store ptr %2, ptr %8, align 8, !tbaa !128
  store ptr %3, ptr %9, align 8, !tbaa !42
  br label %18

18:                                               ; preds = %73, %4
  call void @llvm.lifetime.start.p0(i64 8, ptr %10) #13
  call void @llvm.lifetime.start.p0(i64 8, ptr %11) #13
  call void @llvm.lifetime.start.p0(i64 8, ptr %12) #13
  call void @llvm.lifetime.start.p0(i64 1, ptr %13) #13
  %19 = call zeroext i1 @je_multi_setting_parse_next(ptr noundef %6, ptr noundef %7, ptr noundef %10, ptr noundef %11, ptr noundef %12)
  %20 = zext i1 %19 to i8
  store i8 %20, ptr %13, align 1, !tbaa !22
  %21 = load i8, ptr %13, align 1, !tbaa !22, !range !23, !noundef !24
  %22 = trunc i8 %21 to i1
  br i1 %22, label %23, label %24

23:                                               ; preds = %18
  store i1 true, ptr %5, align 1
  store i32 1, ptr %14, align 4
  br label %70

24:                                               ; preds = %18
  %25 = load i64, ptr %11, align 8, !tbaa !16
  %26 = icmp ugt i64 %25, 8388608
  br i1 %26, label %27, label %28

27:                                               ; preds = %24
  store i64 8388608, ptr %11, align 8, !tbaa !16
  br label %28

28:                                               ; preds = %27, %24
  %29 = load i64, ptr %10, align 8, !tbaa !16
  %30 = icmp ugt i64 %29, 8388608
  br i1 %30, label %35, label %31

31:                                               ; preds = %28
  %32 = load i64, ptr %10, align 8, !tbaa !16
  %33 = load i64, ptr %11, align 8, !tbaa !16
  %34 = icmp ugt i64 %32, %33
  br i1 %34, label %35, label %36

35:                                               ; preds = %31, %28
  store i32 3, ptr %14, align 4
  br label %70

36:                                               ; preds = %31
  call void @llvm.lifetime.start.p0(i64 4, ptr %15) #13
  %37 = load i64, ptr %10, align 8, !tbaa !16
  %38 = call i32 @sz_size2index_compute(i64 noundef %37)
  store i32 %38, ptr %15, align 4, !tbaa !34
  call void @llvm.lifetime.start.p0(i64 4, ptr %16) #13
  %39 = load i64, ptr %11, align 8, !tbaa !16
  %40 = call i32 @sz_size2index_compute(i64 noundef %39)
  store i32 %40, ptr %16, align 4, !tbaa !34
  %41 = load i64, ptr %12, align 8, !tbaa !16
  %42 = icmp ugt i64 %41, 8191
  br i1 %42, label %43, label %44

43:                                               ; preds = %36
  store i64 8191, ptr %12, align 8, !tbaa !16
  br label %44

44:                                               ; preds = %43, %36
  call void @llvm.lifetime.start.p0(i64 4, ptr %17) #13
  %45 = load i32, ptr %15, align 4, !tbaa !34
  store i32 %45, ptr %17, align 4, !tbaa !34
  br label %46

46:                                               ; preds = %66, %44
  %47 = load i32, ptr %17, align 4, !tbaa !34
  %48 = load i32, ptr %16, align 4, !tbaa !34
  %49 = icmp ule i32 %47, %48
  br i1 %49, label %51, label %50

50:                                               ; preds = %46
  store i32 4, ptr %14, align 4
  call void @llvm.lifetime.end.p0(i64 4, ptr %17) #13
  br label %69

51:                                               ; preds = %46
  %52 = load ptr, ptr %8, align 8, !tbaa !128
  %53 = load i32, ptr %17, align 4, !tbaa !34
  %54 = zext i32 %53 to i64
  %55 = getelementptr inbounds nuw %struct.cache_bin_info_s, ptr %52, i64 %54
  %56 = load i64, ptr %12, align 8, !tbaa !16
  %57 = trunc i64 %56 to i16
  call void @je_cache_bin_info_init(ptr noundef %55, i16 noundef zeroext %57)
  %58 = load ptr, ptr %9, align 8, !tbaa !42
  %59 = icmp ne ptr %58, null
  br i1 %59, label %60, label %65

60:                                               ; preds = %51
  %61 = load ptr, ptr %9, align 8, !tbaa !42
  %62 = load i32, ptr %17, align 4, !tbaa !34
  %63 = zext i32 %62 to i64
  %64 = getelementptr inbounds nuw i8, ptr %61, i64 %63
  store i8 1, ptr %64, align 1, !tbaa !22
  br label %65

65:                                               ; preds = %60, %51
  br label %66

66:                                               ; preds = %65
  %67 = load i32, ptr %17, align 4, !tbaa !34
  %68 = add i32 %67, 1
  store i32 %68, ptr %17, align 4, !tbaa !34
  br label %46, !llvm.loop !137

69:                                               ; preds = %50
  call void @llvm.lifetime.end.p0(i64 4, ptr %16) #13
  call void @llvm.lifetime.end.p0(i64 4, ptr %15) #13
  store i32 0, ptr %14, align 4
  br label %70

70:                                               ; preds = %69, %35, %23
  call void @llvm.lifetime.end.p0(i64 1, ptr %13) #13
  call void @llvm.lifetime.end.p0(i64 8, ptr %12) #13
  call void @llvm.lifetime.end.p0(i64 8, ptr %11) #13
  call void @llvm.lifetime.end.p0(i64 8, ptr %10) #13
  %71 = load i32, ptr %14, align 4
  switch i32 %71, label %79 [
    i32 0, label %72
    i32 1, label %77
    i32 3, label %73
  ]

72:                                               ; preds = %70
  br label %73

73:                                               ; preds = %72, %70
  %74 = load i64, ptr %7, align 8, !tbaa !16
  %75 = icmp ugt i64 %74, 0
  br i1 %75, label %18, label %76, !llvm.loop !138

76:                                               ; preds = %73
  store i1 false, ptr %5, align 1
  br label %77

77:                                               ; preds = %76, %70
  %78 = load i1, ptr %5, align 1
  ret i1 %78

79:                                               ; preds = %70
  unreachable
}