; Function Attrs: nounwind uwtable
define internal fastcc noundef zeroext i1 @tcache_bin_info_settings_parse(ptr noundef %0, i64 noundef %1, ptr noundef %2, ptr noundef writeonly captures(address_is_null) %3) unnamed_addr #0 {
  %5 = alloca ptr, align 8
  %6 = alloca i64, align 8
  %7 = alloca i64, align 8
  %8 = alloca i64, align 8
  %9 = alloca i64, align 8
  store ptr %0, ptr %5, align 8, !tbaa !186
  store i64 %1, ptr %6, align 8, !tbaa !19
  %.not15 = icmp eq ptr %3, null
  br label %10

10:                                               ; preds = %.loopexit, %4
  call void @llvm.lifetime.start.p0(i64 8, ptr nonnull %7) #16
  call void @llvm.lifetime.start.p0(i64 8, ptr nonnull %8) #16
  call void @llvm.lifetime.start.p0(i64 8, ptr nonnull %9) #16
  %11 = call zeroext i1 @je_multi_setting_parse_next(ptr noundef nonnull %5, ptr noundef nonnull %6, ptr noundef nonnull %7, ptr noundef nonnull %8, ptr noundef nonnull %9) #16
  br i1 %11, label %77, label %12

12:                                               ; preds = %10
  %13 = load i64, ptr %8, align 8
  %14 = icmp ugt i64 %13, 8388608
  br i1 %14, label %15, label %16

15:                                               ; preds = %12
  store i64 8388608, ptr %8, align 8, !tbaa !19
  br label %16

16:                                               ; preds = %15, %12
  %17 = phi i64 [ 8388608, %15 ], [ %13, %12 ]
  %18 = load i64, ptr %7, align 8, !tbaa !19
  %19 = icmp ugt i64 %18, 8388608
  %20 = icmp ugt i64 %18, %17
  %or.cond = or i1 %19, %20
  br i1 %or.cond, label %.loopexit, label %21

21:                                               ; preds = %16
  %22 = icmp samesign ult i64 %18, 9
  br i1 %22, label %sz_size2index_compute.exit, label %23

23:                                               ; preds = %21
  %24 = shl nuw nsw i64 %18, 1
  %25 = add nsw i64 %24, -1
  %26 = call range(i64 0, 65) i64 @llvm.ctlz.i64(i64 range(i64 1, 0) %25, i1 true)
  %27 = trunc nuw nsw i64 %26 to i32
  %28 = xor i32 %27, 63
  %29 = call i32 @llvm.usub.sat.i32(i32 %28, i32 6)
  %30 = shl nuw nsw i32 %29, 2
  %31 = call i32 @llvm.umax.i32(i32 %28, i32 7)
  %32 = add nsw i32 %31, -3
  %33 = zext nneg i32 %32 to i64
  %34 = shl nsw i64 -1, %33
  %35 = add nsw i64 %18, -1
  %36 = and i64 %34, %35
  %37 = lshr i64 %36, %33
  %38 = trunc i64 %37 to i32
  %39 = and i32 %38, 3
  %40 = or disjoint i32 %30, 1
  %41 = add nuw nsw i32 %40, %39
  br label %sz_size2index_compute.exit

sz_size2index_compute.exit:                       ; preds = %23, %21
  %.0.i.i = phi i32 [ %41, %23 ], [ 0, %21 ]
  %42 = icmp samesign ult i64 %17, 9
  br i1 %42, label %sz_size2index_compute.exit19, label %43

43:                                               ; preds = %sz_size2index_compute.exit
  %44 = shl nuw nsw i64 %17, 1
  %45 = add nsw i64 %44, -1
  %46 = call range(i64 0, 65) i64 @llvm.ctlz.i64(i64 range(i64 1, 0) %45, i1 true)
  %47 = trunc nuw nsw i64 %46 to i32
  %48 = xor i32 %47, 63
  %49 = call i32 @llvm.usub.sat.i32(i32 %48, i32 6)
  %50 = shl nuw nsw i32 %49, 2
  %51 = call i32 @llvm.umax.i32(i32 %48, i32 7)
  %52 = add nsw i32 %51, -3
  %53 = zext nneg i32 %52 to i64
  %54 = shl nsw i64 -1, %53
  %55 = add nsw i64 %17, -1
  %56 = and i64 %54, %55
  %57 = lshr i64 %56, %53
  %58 = trunc i64 %57 to i32
  %59 = and i32 %58, 3
  %60 = or disjoint i32 %50, 1
  %61 = add nuw nsw i32 %60, %59
  br label %sz_size2index_compute.exit19

sz_size2index_compute.exit19:                     ; preds = %sz_size2index_compute.exit, %43
  %.0.i.i18 = phi i32 [ %61, %43 ], [ 0, %sz_size2index_compute.exit ]
  %62 = load i64, ptr %9, align 8, !tbaa !19
  %63 = icmp ugt i64 %62, 8191
  br i1 %63, label %64, label %65

64:                                               ; preds = %sz_size2index_compute.exit19
  store i64 8191, ptr %9, align 8, !tbaa !19
  br label %65

65:                                               ; preds = %64, %sz_size2index_compute.exit19
  %.not25 = icmp samesign ugt i32 %.0.i.i, %.0.i.i18
  br i1 %.not25, label %.loopexit, label %.lr.ph

.lr.ph:                                           ; preds = %65
  br i1 %.not15, label %.lr.ph.split.us, label %.lr.ph.split

.lr.ph.split.us:                                  ; preds = %.lr.ph, %.lr.ph.split.us
  %.026.us = phi i32 [ %70, %.lr.ph.split.us ], [ %.0.i.i, %.lr.ph ]
  %66 = zext i32 %.026.us to i64
  %67 = getelementptr inbounds nuw %struct.cache_bin_info_s, ptr %2, i64 %66
  %68 = load i64, ptr %9, align 8, !tbaa !19
  %69 = trunc i64 %68 to i16
  call void @je_cache_bin_info_init(ptr noundef %67, i16 noundef zeroext %69) #16
  %70 = add i32 %.026.us, 1
  %.not.us = icmp ugt i32 %70, %.0.i.i18
  br i1 %.not.us, label %.loopexit, label %.lr.ph.split.us, !llvm.loop !188

.lr.ph.split:                                     ; preds = %.lr.ph, %.lr.ph.split
  %.026 = phi i32 [ %76, %.lr.ph.split ], [ %.0.i.i, %.lr.ph ]
  %71 = zext i32 %.026 to i64
  %72 = getelementptr inbounds nuw %struct.cache_bin_info_s, ptr %2, i64 %71
  %73 = load i64, ptr %9, align 8, !tbaa !19
  %74 = trunc i64 %73 to i16
  call void @je_cache_bin_info_init(ptr noundef %72, i16 noundef zeroext %74) #16
  %75 = getelementptr inbounds nuw i8, ptr %3, i64 %71
  store i8 1, ptr %75, align 1, !tbaa !20
  %76 = add i32 %.026, 1
  %.not = icmp ugt i32 %76, %.0.i.i18
  br i1 %.not, label %.loopexit, label %.lr.ph.split, !llvm.loop !188

77:                                               ; preds = %10
  call void @llvm.lifetime.end.p0(i64 8, ptr nonnull %9) #16
  call void @llvm.lifetime.end.p0(i64 8, ptr nonnull %8) #16
  call void @llvm.lifetime.end.p0(i64 8, ptr nonnull %7) #16
  br label %.loopexit23

.loopexit:                                        ; preds = %.lr.ph.split, %.lr.ph.split.us, %65, %16
  call void @llvm.lifetime.end.p0(i64 8, ptr nonnull %9) #16
  call void @llvm.lifetime.end.p0(i64 8, ptr nonnull %8) #16
  call void @llvm.lifetime.end.p0(i64 8, ptr nonnull %7) #16
  %78 = load i64, ptr %6, align 8, !tbaa !19
  %.not16 = icmp eq i64 %78, 0
  br i1 %.not16, label %.loopexit23, label %10, !llvm.loop !189

.loopexit23:                                      ; preds = %.loopexit, %77
  ret i1 %11
}